target datalayout = "e-m:e-p270:32:32-p271:32:32-p272:64:64-i64:64-i128:128-f80:128-n8:16:32:64-S128"
target triple = "x86_64-pc-linux-gnu"

; Function Attrs: inlinehint nounwind uwtable
define internal i32 @toLitCond(i32 noundef %0, i32 noundef %1) #5 {
  %3 = alloca i32, align 4
  %4 = alloca i32, align 4
  store i32 %0, ptr %3, align 4, !tbaa !20
  store i32 %1, ptr %4, align 4, !tbaa !20
  %5 = load i32, ptr %3, align 4, !tbaa !20
  %6 = load i32, ptr %3, align 4, !tbaa !20
  %7 = add nsw i32 %5, %6
  %8 = load i32, ptr %4, align 4, !tbaa !20
  %9 = icmp ne i32 %8, 0
  %10 = zext i1 %9 to i32
  %11 = add nsw i32 %7, %10
  ret i32 %11
}

; Function Attrs: nounwind uwtable
define i32 @Cnf_DataAddXorClause(ptr noundef %0, i32 noundef %1, i32 noundef %2, i32 noundef %3) #0 {
  %5 = alloca i32, align 4
  %6 = alloca ptr, align 8
  %7 = alloca i32, align 4
  %8 = alloca i32, align 4
  %9 = alloca i32, align 4
  %10 = alloca [3 x i32], align 4
  %11 = alloca i32, align 4
  store ptr %0, ptr %6, align 8, !tbaa !54
  store i32 %1, ptr %7, align 4, !tbaa !20
  store i32 %2, ptr %8, align 4, !tbaa !20
  store i32 %3, ptr %9, align 4, !tbaa !20
  call void @llvm.lifetime.start.p0(i64 12, ptr %10) #11
  %12 = load i32, ptr %7, align 4, !tbaa !20
  %13 = call i32 @toLitCond(i32 noundef %12, i32 noundef 1)
  %14 = getelementptr inbounds [3 x i32], ptr %10, i64 0, i64 0
  store i32 %13, ptr %14, align 4, !tbaa !20
  %15 = load i32, ptr %8, align 4, !tbaa !20
  %16 = call i32 @toLitCond(i32 noundef %15, i32 noundef 1)
  %17 = getelementptr inbounds [3 x i32], ptr %10, i64 0, i64 1
  store i32 %16, ptr %17, align 4, !tbaa !20
  %18 = load i32, ptr %9, align 4, !tbaa !20
  %19 = call i32 @toLitCond(i32 noundef %18, i32 noundef 1)
  %20 = getelementptr inbounds [3 x i32], ptr %10, i64 0, i64 2
  store i32 %19, ptr %20, align 4, !tbaa !20
  %21 = load ptr, ptr %6, align 8, !tbaa !54
  %22 = getelementptr inbounds [3 x i32], ptr %10, i64 0, i64 0
  %23 = getelementptr inbounds [3 x i32], ptr %10, i64 0, i64 0
  %24 = getelementptr inbounds i32, ptr %23, i64 3
  %25 = call i32 @sat_solver_addclause(ptr noundef %21, ptr noundef %22, ptr noundef %24)
  %26 = icmp ne i32 %25, 0
  br i1 %26, label %28, label %27

27:                                               ; preds = %4
  store i32 0, ptr %5, align 4
  store i32 1, ptr %11, align 4
  br label %80

28:                                               ; preds = %4
  %29 = load i32, ptr %7, align 4, !tbaa !20
  %30 = call i32 @toLitCond(i32 noundef %29, i32 noundef 1)
  %31 = getelementptr inbounds [3 x i32], ptr %10, i64 0, i64 0
  store i32 %30, ptr %31, align 4, !tbaa !20
  %32 = load i32, ptr %8, align 4, !tbaa !20
  %33 = call i32 @toLitCond(i32 noundef %32, i32 noundef 0)
  %34 = getelementptr inbounds [3 x i32], ptr %10, i64 0, i64 1
  store i32 %33, ptr %34, align 4, !tbaa !20
  %35 = load i32, ptr %9, align 4, !tbaa !20
  %36 = call i32 @toLitCond(i32 noundef %35, i32 noundef 0)
  %37 = getelementptr inbounds [3 x i32], ptr %10, i64 0, i64 2
  store i32 %36, ptr %37, align 4, !tbaa !20
  %38 = load ptr, ptr %6, align 8, !tbaa !54
  %39 = getelementptr inbounds [3 x i32], ptr %10, i64 0, i64 0
  %40 = getelementptr inbounds [3 x i32], ptr %10, i64 0, i64 0
  %41 = getelementptr inbounds i32, ptr %40, i64 3
  %42 = call i32 @sat_solver_addclause(ptr noundef %38, ptr noundef %39, ptr noundef %41)
  %43 = icmp ne i32 %42, 0
  br i1 %43, label %45, label %44

44:                                               ; preds = %28
  store i32 0, ptr %5, align 4
  store i32 1, ptr %11, align 4
  br label %80

45:                                               ; preds = %28
  %46 = load i32, ptr %7, align 4, !tbaa !20
  %47 = call i32 @toLitCond(i32 noundef %46, i32 noundef 0)
  %48 = getelementptr inbounds [3 x i32], ptr %10, i64 0, i64 0
  store i32 %47, ptr %48, align 4, !tbaa !20
  %49 = load i32, ptr %8, align 4, !tbaa !20
  %50 = call i32 @toLitCond(i32 noundef %49, i32 noundef 1)
  %51 = getelementptr inbounds [3 x i32], ptr %10, i64 0, i64 1
  store i32 %50, ptr %51, align 4, !tbaa !20
  %52 = load i32, ptr %9, align 4, !tbaa !20
  %53 = call i32 @toLitCond(i32 noundef %52, i32 noundef 0)
  %54 = getelementptr inbounds [3 x i32], ptr %10, i64 0, i64 2
  store i32 %53, ptr %54, align 4, !tbaa !20
  %55 = load ptr, ptr %6, align 8, !tbaa !54
  %56 = getelementptr inbounds [3 x i32], ptr %10, i64 0, i64 0
  %57 = getelementptr inbounds [3 x i32], ptr %10, i64 0, i64 0
  %58 = getelementptr inbounds i32, ptr %57, i64 3
  %59 = call i32 @sat_solver_addclause(ptr noundef %55, ptr noundef %56, ptr noundef %58)
  %60 = icmp ne i32 %59, 0
  br i1 %60, label %62, label %61

61:                                               ; preds = %45
  store i32 0, ptr %5, align 4
  store i32 1, ptr %11, align 4
  br label %80

62:                                               ; preds = %45
  %63 = load i32, ptr %7, align 4, !tbaa !20
  %64 = call i32 @toLitCond(i32 noundef %63, i32 noundef 0)
  %65 = getelementptr inbounds [3 x i32], ptr %10, i64 0, i64 0
  store i32 %64, ptr %65, align 4, !tbaa !20
  %66 = load i32, ptr %8, align 4, !tbaa !20
  %67 = call i32 @toLitCond(i32 noundef %66, i32 noundef 0)
  %68 = getelementptr inbounds [3 x i32], ptr %10, i64 0, i64 1
  store i32 %67, ptr %68, align 4, !tbaa !20
  %69 = load i32, ptr %9, align 4, !tbaa !20
  %70 = call i32 @toLitCond(i32 noundef %69, i32 noundef 1)
  %71 = getelementptr inbounds [3 x i32], ptr %10, i64 0, i64 2
  store i32 %70, ptr %71, align 4, !tbaa !20
  %72 = load ptr, ptr %6, align 8, !tbaa !54
  %73 = getelementptr inbounds [3 x i32], ptr %10, i64 0, i64 0
  %74 = getelementptr inbounds [3 x i32], ptr %10, i64 0, i64 0
  %75 = getelementptr inbounds i32, ptr %74, i64 3
  %76 = call i32 @sat_solver_addclause(ptr noundef %72, ptr noundef %73, ptr noundef %75)
  %77 = icmp ne i32 %76, 0
  br i1 %77, label %79, label %78

78:                                               ; preds = %62
  store i32 0, ptr %5, align 4
  store i32 1, ptr %11, align 4
  br label %80

79:                                               ; preds = %62
  store i32 1, ptr %5, align 4
  store i32 1, ptr %11, align 4
  br label %80

80:                                               ; preds = %79, %78, %61, %44, %27
  call void @llvm.lifetime.end.p0(i64 12, ptr %10) #11
  %81 = load i32, ptr %5, align 4
  ret i32 %81
}